target datalayout = "e-m:e-p270:32:32-p271:32:32-p272:64:64-i64:64-i128:128-f80:128-n8:16:32:64-S128"
target triple = "x86_64-pc-linux-gnu"

%class.ciBytecodeStream = type { ptr, ptr, ptr, ptr, ptr, ptr, ptr, ptr, i32, i32 }
%"class.GraphBuilder::ScopeData" = type <{ ptr, ptr, ptr, i8, [7 x i8], ptr, ptr, i64, i32, [4 x i8], ptr, i8, [3 x i8], i32, i32, [4 x i8], ptr, ptr, i32, [4 x i8], ptr, ptr, ptr, i8, [7 x i8] }>
%class.GraphBuilder = type <{ ptr, ptr, ptr, ptr, ptr, i32, [4 x i8], ptr, ptr, ptr, ptr, ptr, ptr, i8, [7 x i8] }>

; Function Attrs: mustprogress nounwind uwtable
define linkonce_odr hidden noundef i64 @_Z13pointer_deltaPVKvS0_m(ptr noundef %0, ptr noundef %1, i64 noundef %2) #1 comdat {
  %4 = alloca ptr, align 8
  %5 = alloca ptr, align 8
  %6 = alloca i64, align 8
  store ptr %0, ptr %4, align 8
  store ptr %1, ptr %5, align 8
  store i64 %2, ptr %6, align 8
  %7 = load ptr, ptr %4, align 8
  %8 = ptrtoint ptr %7 to i64
  %9 = load ptr, ptr %5, align 8
  %10 = ptrtoint ptr %9 to i64
  %11 = sub i64 %8, %10
  %12 = load i64, ptr %6, align 8
  %13 = udiv i64 %11, %12
  ret i64 %13
}

; Function Attrs: mustprogress nounwind uwtable
define linkonce_odr hidden noundef i32 @_Z20pointer_delta_as_intIhEiPVKT_S2_(ptr noundef %0, ptr noundef %1) #1 comdat {
  %3 = alloca ptr, align 8
  %4 = alloca ptr, align 8
  %5 = alloca i64, align 8
  store ptr %0, ptr %3, align 8
  store ptr %1, ptr %4, align 8
  %6 = load ptr, ptr %3, align 8
  %7 = load ptr, ptr %4, align 8
  %8 = call noundef i64 @_Z13pointer_deltaPVKvS0_m(ptr noundef %6, ptr noundef %7, i64 noundef 1)
  store i64 %8, ptr %5, align 8
  %9 = load i64, ptr %5, align 8
  %10 = trunc i64 %9 to i32
  ret i32 %10
}

; Function Attrs: mustprogress nounwind uwtable
define linkonce_odr hidden noundef ptr @_ZN12GraphBuilder9ScopeData6streamEv(ptr noundef nonnull align 8 dereferenceable(137) %0) #1 comdat align 2 {
  %2 = alloca ptr, align 8
  store ptr %0, ptr %2, align 8
  %3 = load ptr, ptr %2, align 8
  %4 = getelementptr inbounds %"class.GraphBuilder::ScopeData", ptr %3, i32 0, i32 5
  %5 = load ptr, ptr %4, align 8
  ret ptr %5
}

; Function Attrs: mustprogress nounwind uwtable
define linkonce_odr hidden noundef ptr @_ZNK12GraphBuilder10scope_dataEv(ptr noundef nonnull align 8 dereferenceable(97) %0) #1 comdat align 2 {
  %2 = alloca ptr, align 8
  store ptr %0, ptr %2, align 8
  %3 = load ptr, ptr %2, align 8
  %4 = getelementptr inbounds %class.GraphBuilder, ptr %3, i32 0, i32 0
  %5 = load ptr, ptr %4, align 8
  ret ptr %5
}

; Function Attrs: mustprogress nounwind uwtable
define linkonce_odr hidden noundef i32 @_ZNK16ciBytecodeStream7cur_bciEv(ptr noundef nonnull align 8 dereferenceable(72) %0) #1 comdat align 2 {
  %2 = alloca ptr, align 8
  store ptr %0, ptr %2, align 8
  %3 = load ptr, ptr %2, align 8
  %4 = getelementptr inbounds %class.ciBytecodeStream, ptr %3, i32 0, i32 2
  %5 = load ptr, ptr %4, align 8
  %6 = getelementptr inbounds %class.ciBytecodeStream, ptr %3, i32 0, i32 5
  %7 = load ptr, ptr %6, align 8
  %8 = call noundef i32 @_Z20pointer_delta_as_intIhEiPVKT_S2_(ptr noundef %5, ptr noundef %7)
  ret i32 %8
}

; Function Attrs: mustprogress nounwind uwtable
define linkonce_odr hidden noundef ptr @_ZNK12GraphBuilder6streamEv(ptr noundef nonnull align 8 dereferenceable(97) %0) #1 comdat align 2 {
  %2 = alloca ptr, align 8
  store ptr %0, ptr %2, align 8
  %3 = load ptr, ptr %2, align 8
  %4 = call noundef ptr @_ZNK12GraphBuilder10scope_dataEv(ptr noundef nonnull align 8 dereferenceable(97) %3)
  %5 = call noundef ptr @_ZN12GraphBuilder9ScopeData6streamEv(ptr noundef nonnull align 8 dereferenceable(137) %4)
  ret ptr %5
}

; Function Attrs: mustprogress nounwind uwtable
define linkonce_odr hidden noundef i32 @_ZNK12GraphBuilder3bciEv(ptr noundef nonnull align 8 dereferenceable(97) %0) #1 comdat align 2 {
  %2 = alloca ptr, align 8
  store ptr %0, ptr %2, align 8
  %3 = load ptr, ptr %2, align 8
  %4 = call noundef ptr @_ZNK12GraphBuilder6streamEv(ptr noundef nonnull align 8 dereferenceable(97) %3)
  %5 = call noundef i32 @_ZNK16ciBytecodeStream7cur_bciEv(ptr noundef nonnull align 8 dereferenceable(72) %4)
  ret i32 %5
}

; Function Attrs: mustprogress nounwind uwtable
define hidden noundef ptr @_ZN12GraphBuilder24copy_state_for_exceptionEv(ptr noundef nonnull align 8 dereferenceable(97) %0) #1 align 2 {
  %2 = alloca ptr, align 8
  store ptr %0, ptr %2, align 8
  %3 = load ptr, ptr %2, align 8
  %4 = call noundef i32 @_ZNK12GraphBuilder3bciEv(ptr noundef nonnull align 8 dereferenceable(97) %3)
  %5 = call noundef ptr @_ZN12GraphBuilder33copy_state_for_exception_with_bciEi(ptr noundef nonnull align 8 dereferenceable(97) %3, i32 noundef %4)
  ret ptr %5
}