; Function Attrs: mustprogress nounwind uwtable
define hidden noundef ptr @_ZN12GraphBuilder24copy_state_for_exceptionEv(ptr nocapture noundef nonnull readonly align 8 dereferenceable(97) %0) local_unnamed_addr #0 align 2 {
  %2 = load ptr, ptr %0, align 8
  %3 = getelementptr inbounds i8, ptr %2, i64 32
  %4 = load ptr, ptr %3, align 8
  %5 = getelementptr inbounds i8, ptr %4, i64 16
  %6 = load ptr, ptr %5, align 8
  %7 = getelementptr inbounds i8, ptr %4, i64 40
  %8 = load ptr, ptr %7, align 8
  %9 = ptrtoint ptr %6 to i64
  %10 = ptrtoint ptr %8 to i64
  %11 = sub i64 %9, %10
  %12 = trunc i64 %11 to i32
  %13 = tail call noundef ptr @_ZN12GraphBuilder33copy_state_for_exception_with_bciEi(ptr noundef nonnull align 8 dereferenceable(97) %0, i32 noundef %12)
  ret ptr %13
}